; Function Attrs: nounwind uwtable
define dso_local void @llvm_emit_break(ptr noundef %0, ptr nocapture noundef readonly %1) local_unnamed_addr #0 {
  %3 = getelementptr inbounds i8, ptr %1, i64 20
  %4 = load i32, ptr %3, align 4
  %.not16 = icmp eq i32 %4, 0
  br i1 %.not16, label %._crit_edge, label %.lr.ph

.lr.ph:                                           ; preds = %2, %.lr.ph
  %.01517 = phi i32 [ %9, %.lr.ph ], [ %4, %2 ]
  %5 = load ptr, ptr @ast_arena, align 8
  %6 = zext i32 %.01517 to i64
  %7 = getelementptr inbounds %struct.Ast_, ptr %5, i64 %6
  %8 = getelementptr inbounds i8, ptr %7, i64 8
  %9 = load i32, ptr %8, align 8
  tail call void @llvm_emit_stmt(ptr noundef %0, ptr noundef nonnull %7)
  %.not = icmp eq i32 %9, 0
  br i1 %.not, label %._crit_edge, label %.lr.ph, !llvm.loop !24

._crit_edge:                                      ; preds = %.lr.ph, %2
  %10 = getelementptr inbounds i8, ptr %1, i64 24
  %11 = load i32, ptr %10, align 8
  %12 = load ptr, ptr @ast_arena, align 8
  %13 = zext i32 %11 to i64
  %14 = getelementptr inbounds %struct.Ast_, ptr %12, i64 %13
  %15 = getelementptr inbounds i8, ptr %14, i64 12
  %16 = load i8, ptr %15, align 4
  %switch.tableidx = add i8 %16, -20
  %17 = icmp ult i8 %switch.tableidx, 8
  br i1 %17, label %switch.hole_check, label %18

18:                                               ; preds = %switch.hole_check, %._crit_edge
  tail call void (ptr, ...) @error_exit(ptr noundef nonnull @.str.9, ptr noundef nonnull @.str.10, ptr noundef nonnull @__func__.llvm_emit_break, ptr noundef nonnull @.str.11, i32 noundef 920) #10
  unreachable

switch.hole_check:                                ; preds = %._crit_edge
  %switch.shifted = lshr i8 -115, %switch.tableidx
  %switch.lobit = trunc i8 %switch.shifted to i1
  br i1 %switch.lobit, label %switch.lookup, label %18

switch.lookup:                                    ; preds = %switch.hole_check
  %19 = zext nneg i8 %switch.tableidx to i64
  %switch.gep = getelementptr inbounds [8 x i64], ptr @switch.table.llvm_emit_break, i64 0, i64 %19
  %switch.load = load i64, ptr %switch.gep, align 8
  %20 = getelementptr inbounds i8, ptr %14, i64 %switch.load
  %.0 = load ptr, ptr %20, align 8
  tail call void @llvm_emit_br(ptr noundef %0, ptr noundef %.0) #9
  %21 = tail call ptr @llvm_basic_block_new(ptr noundef %0, ptr noundef nonnull @.str.2) #9
  tail call void @llvm_emit_block(ptr noundef %0, ptr noundef %21) #9
  ret void
}